; Function Attrs: mustprogress nofree norecurse nosync nounwind willreturn memory(argmem: readwrite) uwtable
define hidden void @ncnn_blob_get_shape(ptr nocapture noundef readonly %0, ptr nocapture noundef writeonly %1, ptr nocapture noundef writeonly %2, ptr nocapture noundef writeonly %3, ptr nocapture noundef writeonly %4) local_unnamed_addr #10 {
  %6 = getelementptr inbounds i8, ptr %0, i64 80
  %7 = load i32, ptr %6, align 8
  store i32 %7, ptr %1, align 4
  %8 = getelementptr inbounds i8, ptr %0, i64 84
  %9 = load i32, ptr %8, align 4
  store i32 %9, ptr %2, align 4
  %10 = getelementptr inbounds i8, ptr %0, i64 88
  %11 = load i32, ptr %10, align 8
  store i32 %11, ptr %3, align 4
  %12 = getelementptr inbounds i8, ptr %0, i64 96
  %13 = load i32, ptr %12, align 8
  store i32 %13, ptr %4, align 4
  ret void
}